Certificate:
    Data:
        Version: 3 (0x2)
        Serial Number:
            6d:b6:d3:ad:30:c4:b9:e9:11:0c:6d:04:7e:8f:00:79
        Signature Algorithm: sha256WithRSAEncryption
        Issuer: CN=Test CA
        Validity
            Not Before: Mar  9 18:26:03 2023 GMT
            Not After : Jun 11 18:26:03 2025 GMT
        Subject: CN=localhost
        Subject Public Key Info:
            Public Key Algorithm: rsaEncryption
                Public-Key: (2048 bit)
                Modulus:
                    00:bf:65:b7:7b:3f:43:c6:87:1b:ae:c9:d9:8f:44:
                    79:34:bb:99:eb:73:b9:c9:b8:b5:51:c7:cb:64:f4:
                    91:9e:4e:f4:d1:f7:99:73:b5:34:e2:73:47:ca:6f:
                    ba:ab:38:19:e0:94:ba:9c:65:d2:72:2d:d8:d5:dd:
                    6c:fb:3d:76:12:1a:92:f8:4a:b3:0b:ba:83:6a:0f:
                    62:9e:15:e7:6e:9e:bc:b1:b8:b3:80:4f:19:ca:77:
                    37:29:48:30:c3:2f:d7:eb:2a:4a:75:62:cb:66:94:
                    3f:03:78:9b:2e:d8:61:fb:3c:3c:80:9e:eb:a5:19:
                    f0:20:c4:93:a7:18:b4:93:1d:6d:90:fa:d0:fe:15:
                    ae:0b:52:92:f8:c1:8c:8f:71:9f:49:67:e3:50:d2:
                    a1:10:0f:d8:40:80:19:1a:e2:a0:fd:5e:32:60:4e:
                    1f:2b:f6:73:8e:09:3c:e3:54:83:7f:d9:3e:d5:41:
                    09:0c:63:39:10:4a:af:26:d6:2f:99:35:25:c7:0d:
                    19:d3:ce:25:ec:80:81:d2:32:4b:cb:05:3b:17:37:
                    e8:d7:40:b0:ca:f4:7b:a9:ef:6a:f0:6b:ed:3c:71:
                    5c:d1:4d:39:9e:a1:51:ac:d4:31:ab:77:c2:35:b8:
                    51:d7:df:71:1f:1e:c5:61:69:0c:5f:ca:b9:0d:f3:
                    fe:ef
                Exponent: 65537 (0x10001)
        X509v3 extensions:
            X509v3 Basic Constraints:
                CA:FALSE
            X509v3 Subject Key Identifier:
                15:3B:81:4C:6C:9A:D2:BB:96:23:66:C5:D0:55:4A:0C:53:DF:89:BF
            X509v3 Authority Key Identifier:
                keyid:0E:31:F9:CF:2C:AE:39:79:C6:54:C5:40:A2:36:36:42:FE:30:3C:AA
                DirName:/CN=Test CA
                serial:0A:CC:27:36:B3:88:B4:33:FB:96:8C:5F:4D:79:C7:37:40:D3:45:9C
            X509v3 Extended Key Usage:
                TLS Web Server Authentication
            X509v3 Key Usage:
                Digital Signature, Key Encipherment
            X509v3 Subject Alternative Name:
                DNS:localhost
    Signature Algorithm: sha256WithRSAEncryption
    Signature Value:
        66:1e:6f:a2:5a:86:46:b6:33:22:78:8b:09:31:11:64:5b:5c:
        ac:2e:c7:7c:40:dc:10:5a:ff:76:ee:1f:00:11:4e:8f:c2:8f:
        4b:1f:e7:6a:fc:85:f9:c0:f7:39:23:12:3b:96:0b:88:1d:09:
        97:5b:77:af:1c:b7:01:81:09:12:b9:6b:e1:dc:17:3e:b4:0e:
        a6:72:37:06:ac:e1:82:23:26:e9:0c:84:26:28:7d:52:d5:28:
        51:4d:b8:71:70:f7:d3:d0:17:7c:81:e0:cd:68:66:a5:45:aa:
        41:22:f1:b8:42:53:9c:19:98:d8:47:cf:85:dc:36:bf:dd:85:
        e1:bb:8a:c9:32:aa:af:99:a4:98:84:9e:27:e3:5f:61:c9:c7:
        23:c5:5f:be:2b:e6:4a:1b:72:4d:12:d4:eb:74:1c:05:df:11:
        6d:b1:eb:90:0b:3c:e6:ba:34:62:1d:44:b9:2c:67:52:75:73:
        f2:71:b3:2e:4d:1e:f1:79:b2:44:a3:b4:f9:5e:15:28:e8:15:
        a8:b6:69:df:bd:b8:23:84:aa:56:90:01:22:5a:3a:ae:27:f8:
        8c:87:85:df:06:24:c5:3d:a9:e6:d0:49:cf:03:73:61:a4:ed:
        36:af:ba:a2:d3:e0:24:a4:de:95:4c:ea:07:9d:f4:23:80:0e:
        50:94:c5:f8
-----BEGIN CERTIFICATE-----
MIIDZTCCAk2gAwIBAgIQbbbTrTDEuekRDG0Efo8AeTANBgkqhkiG9w0BAQsFADAS
MRAwDgYDVQQDDAdUZXN0IENBMB4XDTIzMDMwOTE4MjYwM1oXDTI1MDYxMTE4MjYw
M1owFDESMBAGA1UEAwwJbG9jYWxob3N0MIIBIjANBgkqhkiG9w0BAQEFAAOCAQ8A
MIIBCgKCAQEAv2W3ez9DxocbrsnZj0R5NLuZ63O5ybi1UcfLZPSRnk700feZc7U0
4nNHym+6qzgZ4JS6nGXSci3Y1d1s+z12EhqS+EqzC7qDag9inhXnbp68sbizgE8Z
ync3KUgwwy/X6ypKdWLLZpQ/A3ibLthh+zw8gJ7rpRnwIMSTpxi0kx1tkPrQ/hWu
C1KS+MGMj3GfSWfjUNKhEA/YQIAZGuKg/V4yYE4fK/Zzjgk841SDf9k+1UEJDGM5
EEqvJtYvmTUlxw0Z084l7ICB0jJLywU7Fzfo10CwyvR7qe9q8GvtPHFc0U05nqFR
rNQxq3fCNbhR199xHx7FYWkMX8q5DfP+7wIDAQABo4G0MIGxMAkGA1UdEwQCMAAw
HQYDVR0OBBYEFBU7gUxsmtK7liNmxdBVSgxT34m/ME0GA1UdIwRGMESAFA4x+c8s
rjl5xlTFQKI2NkL+MDyqoRakFDASMRAwDgYDVQQDDAdUZXN0IENBghQKzCc2s4i0
M/uWjF9Necc3QNNFnDATBgNVHSUEDDAKBggrBgEFBQcDATALBgNVHQ8EBAMCBaAw
FAYDVR0RBA0wC4IJbG9jYWxob3N0MA0GCSqGSIb3DQEBCwUAA4IBAQBmHm+iWoZG
tjMieIsJMRFkW1ysLsd8QNwQWv927h8AEU6Pwo9LH+dq/IX5wPc5IxI7lguIHQmX
W3evHLcBgQkSuWvh3Bc+tA6mcjcGrOGCIybpDIQmKH1S1ShRTbhxcPfT0Bd8geDN
aGalRapBIvG4QlOcGZjYR8+F3Da/3YXhu4rJMqqvmaSYhJ4n419hyccjxV++K+ZK
G3JNEtTrdBwF3xFtseuQCzzmujRiHUS5LGdSdXPycbMuTR7xebJEo7T5XhUo6BWo
tmnfvbgjhKpWkAEiWjquJ/iMh4XfBiTFPanm0EnPA3NhpO02r7qi0+AkpN6VTOoH
nfQjgA5QlMX4
-----END CERTIFICATE-----
